(dp0
Vengine
p1
Vpdflatex
p2
sVpackages
p3
c__builtin__
set
p4
((lp5
Vlipsum
p6
atp7
Rp8
sVfiles_with_guttermarks
p9
g4
((lp10
V/usr/local/texlive/2015/texmf-dist/tex/latex/mathtools/mathtools.sty
p11
aS'report.tex'
p12
aV/Users/Christopher/Projects/DTU/AML/aml-project/tex/report/../acknowledgements.tex
p13
aV/Users/Christopher/Projects/DTU/AML/aml-project/tex/report/./method.tex
p14
aV/Users/Christopher/Projects/DTU/AML/aml-project/tex/report/./report.tex
p15
aV/Users/Christopher/Projects/DTU/AML/aml-project/tex/report/./abstract.tex
p16
aV/usr/local/texlive/2015/texmf-dist/tex/latex/carlisle/slashed.sty
p17
aV/Users/Christopher/Projects/DTU/AML/aml-project/tex/report/report.tex
p18
aV/Users/Christopher/Projects/DTU/AML/aml-project/tex/report/../math.sty
p19
aV/Users/Christopher/Projects/DTU/AML/aml-project/tex/report/./report.cls
p20
atp21
Rp22
sVsynctex
p23
I01
s.